; Function Attrs: mustprogress uwtable
define hidden noundef range(i32 0, 5) i32 @_ZN11bv_rewriter14mk_zero_extendEjP4exprR7obj_refIS0_11ast_managerE(ptr noundef nonnull align 8 dereferenceable(157) %0, i32 noundef %1, ptr noundef %2, ptr noundef nonnull align 8 captures(none) dereferenceable(16) %3) local_unnamed_addr #3 align 2 {
  %5 = alloca [2 x ptr], align 16
  %6 = icmp eq i32 %1, 0
  br i1 %6, label %7, label %21

7:                                                ; preds = %4
  %.not.i = icmp eq ptr %2, null
  br i1 %.not.i, label %11, label %_ZN11ast_manager7inc_refEP3ast.exit.i

_ZN11ast_manager7inc_refEP3ast.exit.i:            ; preds = %7
  %8 = getelementptr inbounds nuw i8, ptr %2, i64 8
  %9 = load i32, ptr %8, align 4, !tbaa !71
  %10 = add i32 %9, 1
  store i32 %10, ptr %8, align 4, !tbaa !71
  br label %11

11:                                               ; preds = %_ZN11ast_manager7inc_refEP3ast.exit.i, %7
  %12 = load ptr, ptr %3, align 8, !tbaa !72
  %.not.i4.i = icmp eq ptr %12, null
  br i1 %.not.i4.i, label %_ZN7obj_refI4expr11ast_managerEaSEPS0_.exit, label %13

13:                                               ; preds = %11
  %14 = getelementptr inbounds nuw i8, ptr %3, i64 8
  %15 = load ptr, ptr %14, align 8, !tbaa !73
  %16 = getelementptr inbounds nuw i8, ptr %12, i64 8
  %17 = load i32, ptr %16, align 4, !tbaa !71
  %18 = add i32 %17, -1
  store i32 %18, ptr %16, align 4, !tbaa !71
  %19 = icmp eq i32 %18, 0
  br i1 %19, label %20, label %_ZN7obj_refI4expr11ast_managerEaSEPS0_.exit

20:                                               ; preds = %13
  tail call void @_ZN11ast_manager11delete_nodeEP3ast(ptr noundef nonnull align 8 dereferenceable(976) %15, ptr noundef nonnull %12)
  br label %_ZN7obj_refI4expr11ast_managerEaSEPS0_.exit

_ZN7obj_refI4expr11ast_managerEaSEPS0_.exit:      ; preds = %11, %13, %20
  store ptr %2, ptr %3, align 8, !tbaa !72
  br label %42

21:                                               ; preds = %4
  call void @llvm.lifetime.start.p0(i64 16, ptr nonnull %5) #24
  %22 = getelementptr inbounds nuw i8, ptr %0, i64 8
  %23 = tail call noundef ptr @_ZNK7bv_util10mk_numeralERK8rationalj(ptr noundef nonnull align 8 dereferenceable(24) %22, ptr noundef nonnull align 8 dereferenceable(32) @_ZN8rational6m_zeroE, i32 noundef %1)
  store ptr %23, ptr %5, align 16, !tbaa !67
  %24 = getelementptr inbounds nuw i8, ptr %5, i64 8
  store ptr %2, ptr %24, align 8, !tbaa !67
  %25 = getelementptr inbounds nuw i8, ptr %0, i64 16
  %26 = load ptr, ptr %25, align 8, !tbaa !74
  %27 = load i32, ptr %22, align 8, !tbaa !75
  %28 = call noundef ptr @_ZN11ast_manager6mk_appEiijPKP4expr(ptr noundef nonnull align 8 dereferenceable(976) %26, i32 noundef %27, i32 noundef 37, i32 noundef 2, ptr noundef nonnull %5)
  %.not.i8 = icmp eq ptr %28, null
  br i1 %.not.i8, label %32, label %_ZN11ast_manager7inc_refEP3ast.exit.i9

_ZN11ast_manager7inc_refEP3ast.exit.i9:           ; preds = %21
  %29 = getelementptr inbounds nuw i8, ptr %28, i64 8
  %30 = load i32, ptr %29, align 4, !tbaa !71
  %31 = add i32 %30, 1
  store i32 %31, ptr %29, align 4, !tbaa !71
  br label %32

32:                                               ; preds = %_ZN11ast_manager7inc_refEP3ast.exit.i9, %21
  %33 = load ptr, ptr %3, align 8, !tbaa !72
  %.not.i4.i10 = icmp eq ptr %33, null
  br i1 %.not.i4.i10, label %_ZN7obj_refI4expr11ast_managerEaSEPS0_.exit11, label %34

34:                                               ; preds = %32
  %35 = getelementptr inbounds nuw i8, ptr %3, i64 8
  %36 = load ptr, ptr %35, align 8, !tbaa !73
  %37 = getelementptr inbounds nuw i8, ptr %33, i64 8
  %38 = load i32, ptr %37, align 4, !tbaa !71
  %39 = add i32 %38, -1
  store i32 %39, ptr %37, align 4, !tbaa !71
  %40 = icmp eq i32 %39, 0
  br i1 %40, label %41, label %_ZN7obj_refI4expr11ast_managerEaSEPS0_.exit11

41:                                               ; preds = %34
  call void @_ZN11ast_manager11delete_nodeEP3ast(ptr noundef nonnull align 8 dereferenceable(976) %36, ptr noundef nonnull %33)
  br label %_ZN7obj_refI4expr11ast_managerEaSEPS0_.exit11

_ZN7obj_refI4expr11ast_managerEaSEPS0_.exit11:    ; preds = %32, %34, %41
  store ptr %28, ptr %3, align 8, !tbaa !72
  call void @llvm.lifetime.end.p0(i64 16, ptr nonnull %5) #24
  br label %42

42:                                               ; preds = %_ZN7obj_refI4expr11ast_managerEaSEPS0_.exit11, %_ZN7obj_refI4expr11ast_managerEaSEPS0_.exit
  %.0 = phi i32 [ 4, %_ZN7obj_refI4expr11ast_managerEaSEPS0_.exit ], [ 0, %_ZN7obj_refI4expr11ast_managerEaSEPS0_.exit11 ]
  ret i32 %.0
}